target datalayout = "e-m:e-p270:32:32-p271:32:32-p272:64:64-i64:64-i128:128-f80:128-n8:16:32:64-S128"
target triple = "x86_64-pc-linux-gnu"

%struct.pmix_mca_base_framework_t = type { ptr, ptr, ptr, ptr, ptr, ptr, i32, i32, ptr, ptr, i32, i32, %struct.pmix_list_t, %struct.pmix_list_t }
%struct.pmix_list_t = type { %struct.pmix_object_t, %struct.pmix_list_item_t, i64 }
%struct.pmix_object_t = type { %union.pthread_mutex_t, ptr, i32, %struct.pmix_tma }
%union.pthread_mutex_t = type { %struct.__pthread_mutex_s }
%struct.__pthread_mutex_s = type { i32, i32, i32, i32, i32, i16, i16, %struct.__pthread_internal_list }
%struct.__pthread_internal_list = type { ptr, ptr }
%struct.pmix_tma = type { ptr, ptr, ptr, ptr, ptr, ptr, ptr, ptr }
%struct.pmix_list_item_t = type { %struct.pmix_object_t, ptr, ptr, i32 }
%struct.pmix_output_desc_t = type { i8, i8, i32, i8, i32, ptr, ptr, i32, ptr, i32, i8, i8, i8, i8, ptr, i32, i32 }
%struct.pmix_bfrop_type_info_t = type { %struct.pmix_object_t, i16, ptr, ptr, ptr, ptr, ptr }
%struct.pmix_pointer_array_t = type { %struct.pmix_object_t, i32, i32, i32, i32, i32, ptr, ptr }
%struct.pmix_resource_unit = type { i64, i64 }

@pmix_bfrops_base_framework = external global %struct.pmix_mca_base_framework_t, align 8
@pmix_output_info = external global [0 x %struct.pmix_output_desc_t], align 8
@.str.6 = private unnamed_addr constant [37 x i8] c"PMIX ERROR: %s in file %s at line %d\00", align 1
@.str.7 = private unnamed_addr constant [25 x i8] c"base/bfrop_base_unpack.c\00", align 1
@.str.37 = private unnamed_addr constant [37 x i8] c"pmix_bfrop_unpack: %d resource units\00", align 1

; Function Attrs: inlinehint nounwind uwtable
define internal ptr @pmix_pointer_array_get_item(ptr noundef %0, i32 noundef %1) #3 {
  %3 = alloca ptr, align 8
  %4 = alloca ptr, align 8
  %5 = alloca i32, align 4
  %6 = alloca ptr, align 8
  %7 = alloca i32, align 4
  store ptr %0, ptr %4, align 8, !tbaa !3
  store i32 %1, ptr %5, align 4, !tbaa !13
  call void @llvm.lifetime.start.p0(i64 8, ptr %6) #11
  %8 = load i32, ptr %5, align 4, !tbaa !13
  %9 = icmp sgt i32 0, %8
  br i1 %9, label %16, label %10

10:                                               ; preds = %2
  %11 = load ptr, ptr %4, align 8, !tbaa !3
  %12 = getelementptr inbounds nuw %struct.pmix_pointer_array_t, ptr %11, i32 0, i32 3
  %13 = load i32, ptr %12, align 8, !tbaa !33
  %14 = load i32, ptr %5, align 4, !tbaa !13
  %15 = icmp sle i32 %13, %14
  br label %16

16:                                               ; preds = %10, %2
  %17 = phi i1 [ true, %2 ], [ %15, %10 ]
  %18 = xor i1 %17, true
  %19 = xor i1 %18, true
  %20 = zext i1 %19 to i32
  %21 = sext i32 %20 to i64
  %22 = call i64 @llvm.expect.i64(i64 %21, i64 0)
  %23 = icmp ne i64 %22, 0
  br i1 %23, label %24, label %25

24:                                               ; preds = %16
  store ptr null, ptr %3, align 8
  store i32 1, ptr %7, align 4
  br label %34

25:                                               ; preds = %16
  %26 = load ptr, ptr %4, align 8, !tbaa !3
  %27 = getelementptr inbounds nuw %struct.pmix_pointer_array_t, ptr %26, i32 0, i32 7
  %28 = load ptr, ptr %27, align 8, !tbaa !36
  %29 = load i32, ptr %5, align 4, !tbaa !13
  %30 = sext i32 %29 to i64
  %31 = getelementptr inbounds ptr, ptr %28, i64 %30
  %32 = load ptr, ptr %31, align 8, !tbaa !8
  store ptr %32, ptr %6, align 8, !tbaa !8
  %33 = load ptr, ptr %6, align 8, !tbaa !8
  store ptr %33, ptr %3, align 8
  store i32 1, ptr %7, align 4
  br label %34

34:                                               ; preds = %25, %24
  call void @llvm.lifetime.end.p0(i64 8, ptr %6) #11
  %35 = load ptr, ptr %3, align 8
  ret ptr %35
}

; Function Attrs: nounwind uwtable
define i32 @pmix_bfrops_base_unpack_resunit(ptr noundef %0, ptr noundef %1, ptr noundef %2, ptr noundef %3, i16 noundef zeroext %4) #0 {
  %6 = alloca i32, align 4
  %7 = alloca ptr, align 8
  %8 = alloca ptr, align 8
  %9 = alloca ptr, align 8
  %10 = alloca ptr, align 8
  %11 = alloca i16, align 2
  %12 = alloca ptr, align 8
  %13 = alloca i32, align 4
  %14 = alloca i32, align 4
  %15 = alloca i32, align 4
  %16 = alloca i32, align 4
  %17 = alloca ptr, align 8
  %18 = alloca i32, align 4
  %19 = alloca ptr, align 8
  store ptr %0, ptr %7, align 8, !tbaa !3
  store ptr %1, ptr %8, align 8, !tbaa !8
  store ptr %2, ptr %9, align 8, !tbaa !8
  store ptr %3, ptr %10, align 8, !tbaa !9
  store i16 %4, ptr %11, align 2, !tbaa !11
  call void @llvm.lifetime.start.p0(i64 8, ptr %12) #11
  call void @llvm.lifetime.start.p0(i64 4, ptr %13) #11
  call void @llvm.lifetime.start.p0(i64 4, ptr %14) #11
  call void @llvm.lifetime.start.p0(i64 4, ptr %15) #11
  call void @llvm.lifetime.start.p0(i64 4, ptr %16) #11
  %20 = load i32, ptr getelementptr inbounds nuw (%struct.pmix_mca_base_framework_t, ptr @pmix_bfrops_base_framework, i32 0, i32 11), align 4, !tbaa !15
  %21 = icmp sge i32 %20, 0
  br i1 %21, label %22, label %36

22:                                               ; preds = %5
  %23 = load i32, ptr getelementptr inbounds nuw (%struct.pmix_mca_base_framework_t, ptr @pmix_bfrops_base_framework, i32 0, i32 11), align 4, !tbaa !15
  %24 = icmp slt i32 %23, 64
  br i1 %24, label %25, label %36

25:                                               ; preds = %22
  %26 = load i32, ptr getelementptr inbounds nuw (%struct.pmix_mca_base_framework_t, ptr @pmix_bfrops_base_framework, i32 0, i32 11), align 4, !tbaa !15
  %27 = sext i32 %26 to i64
  %28 = getelementptr inbounds [0 x %struct.pmix_output_desc_t], ptr @pmix_output_info, i64 0, i64 %27
  %29 = getelementptr inbounds nuw %struct.pmix_output_desc_t, ptr %28, i32 0, i32 2
  %30 = load i32, ptr %29, align 4, !tbaa !26
  %31 = icmp sge i32 %30, 20
  br i1 %31, label %32, label %36

32:                                               ; preds = %25
  %33 = load i32, ptr getelementptr inbounds nuw (%struct.pmix_mca_base_framework_t, ptr @pmix_bfrops_base_framework, i32 0, i32 11), align 4, !tbaa !15
  %34 = load ptr, ptr %10, align 8, !tbaa !9
  %35 = load i32, ptr %34, align 4, !tbaa !13
  call void (i32, ptr, ...) @pmix_output(i32 noundef %33, ptr noundef @.str.37, i32 noundef %35)
  br label %36

36:                                               ; preds = %32, %25, %22, %5
  %37 = load ptr, ptr %9, align 8, !tbaa !8
  store ptr %37, ptr %12, align 8, !tbaa !199
  %38 = load ptr, ptr %10, align 8, !tbaa !9
  %39 = load i32, ptr %38, align 4, !tbaa !13
  store i32 %39, ptr %14, align 4, !tbaa !13
  store i32 0, ptr %13, align 4, !tbaa !13
  br label %40

40:                                               ; preds = %119, %36
  %41 = load i32, ptr %13, align 4, !tbaa !13
  %42 = load i32, ptr %14, align 4, !tbaa !13
  %43 = icmp slt i32 %41, %42
  br i1 %43, label %44, label %122

44:                                               ; preds = %40
  %45 = load ptr, ptr %12, align 8, !tbaa !199
  %46 = load i32, ptr %13, align 4, !tbaa !13
  %47 = sext i32 %46 to i64
  %48 = getelementptr inbounds %struct.pmix_resource_unit, ptr %45, i64 %47
  call void @PMIx_Resource_unit_construct(ptr noundef %48)
  store i32 1, ptr %15, align 4, !tbaa !13
  br label %49

49:                                               ; preds = %44
  call void @llvm.lifetime.start.p0(i64 8, ptr %17) #11
  %50 = load ptr, ptr %7, align 8, !tbaa !3
  %51 = call ptr @pmix_pointer_array_get_item(ptr noundef %50, i32 noundef 57)
  store ptr %51, ptr %17, align 8, !tbaa !8
  %52 = load ptr, ptr %17, align 8, !tbaa !8
  %53 = icmp eq ptr null, %52
  br i1 %53, label %54, label %55

54:                                               ; preds = %49
  store i32 -16, ptr %16, align 4, !tbaa !13
  br label %67

55:                                               ; preds = %49
  %56 = load ptr, ptr %17, align 8, !tbaa !8
  %57 = getelementptr inbounds nuw %struct.pmix_bfrop_type_info_t, ptr %56, i32 0, i32 4
  %58 = load ptr, ptr %57, align 8, !tbaa !31
  %59 = load ptr, ptr %7, align 8, !tbaa !3
  %60 = load ptr, ptr %8, align 8, !tbaa !8
  %61 = load ptr, ptr %12, align 8, !tbaa !199
  %62 = load i32, ptr %13, align 4, !tbaa !13
  %63 = sext i32 %62 to i64
  %64 = getelementptr inbounds %struct.pmix_resource_unit, ptr %61, i64 %63
  %65 = getelementptr inbounds nuw %struct.pmix_resource_unit, ptr %64, i32 0, i32 0
  %66 = call i32 %58(ptr noundef %59, ptr noundef %60, ptr noundef %65, ptr noundef %15, i16 noundef zeroext 57)
  store i32 %66, ptr %16, align 4, !tbaa !13
  br label %67

67:                                               ; preds = %55, %54
  call void @llvm.lifetime.end.p0(i64 8, ptr %17) #11
  br label %68

68:                                               ; preds = %67
  br label %69

69:                                               ; preds = %68
  %70 = load i32, ptr %16, align 4, !tbaa !13
  %71 = icmp ne i32 0, %70
  br i1 %71, label %72, label %83

72:                                               ; preds = %69
  br label %73

73:                                               ; preds = %72
  %74 = load i32, ptr %16, align 4, !tbaa !13
  %75 = icmp ne i32 -2, %74
  br i1 %75, label %76, label %79

76:                                               ; preds = %73
  %77 = load i32, ptr %16, align 4, !tbaa !13
  %78 = call ptr @PMIx_Error_string(i32 noundef %77)
  call void (i32, ptr, ...) @pmix_output(i32 noundef 0, ptr noundef @.str.6, ptr noundef %78, ptr noundef @.str.7, i32 noundef 1751)
  br label %79

79:                                               ; preds = %76, %73
  br label %80

80:                                               ; preds = %79
  br label %81

81:                                               ; preds = %80
  %82 = load i32, ptr %16, align 4, !tbaa !13
  store i32 %82, ptr %6, align 4
  store i32 1, ptr %18, align 4
  br label %123

83:                                               ; preds = %69
  store i32 1, ptr %15, align 4, !tbaa !13
  br label %84

84:                                               ; preds = %83
  call void @llvm.lifetime.start.p0(i64 8, ptr %19) #11
  %85 = load ptr, ptr %7, align 8, !tbaa !3
  %86 = call ptr @pmix_pointer_array_get_item(ptr noundef %85, i32 noundef 4)
  store ptr %86, ptr %19, align 8, !tbaa !8
  %87 = load ptr, ptr %19, align 8, !tbaa !8
  %88 = icmp eq ptr null, %87
  br i1 %88, label %89, label %90

89:                                               ; preds = %84
  store i32 -16, ptr %16, align 4, !tbaa !13
  br label %102

90:                                               ; preds = %84
  %91 = load ptr, ptr %19, align 8, !tbaa !8
  %92 = getelementptr inbounds nuw %struct.pmix_bfrop_type_info_t, ptr %91, i32 0, i32 4
  %93 = load ptr, ptr %92, align 8, !tbaa !31
  %94 = load ptr, ptr %7, align 8, !tbaa !3
  %95 = load ptr, ptr %8, align 8, !tbaa !8
  %96 = load ptr, ptr %12, align 8, !tbaa !199
  %97 = load i32, ptr %13, align 4, !tbaa !13
  %98 = sext i32 %97 to i64
  %99 = getelementptr inbounds %struct.pmix_resource_unit, ptr %96, i64 %98
  %100 = getelementptr inbounds nuw %struct.pmix_resource_unit, ptr %99, i32 0, i32 1
  %101 = call i32 %93(ptr noundef %94, ptr noundef %95, ptr noundef %100, ptr noundef %15, i16 noundef zeroext 4)
  store i32 %101, ptr %16, align 4, !tbaa !13
  br label %102

102:                                              ; preds = %90, %89
  call void @llvm.lifetime.end.p0(i64 8, ptr %19) #11
  br label %103

103:                                              ; preds = %102
  br label %104

104:                                              ; preds = %103
  %105 = load i32, ptr %16, align 4, !tbaa !13
  %106 = icmp ne i32 0, %105
  br i1 %106, label %107, label %118

107:                                              ; preds = %104
  br label %108

108:                                              ; preds = %107
  %109 = load i32, ptr %16, align 4, !tbaa !13
  %110 = icmp ne i32 -2, %109
  br i1 %110, label %111, label %114

111:                                              ; preds = %108
  %112 = load i32, ptr %16, align 4, !tbaa !13
  %113 = call ptr @PMIx_Error_string(i32 noundef %112)
  call void (i32, ptr, ...) @pmix_output(i32 noundef 0, ptr noundef @.str.6, ptr noundef %113, ptr noundef @.str.7, i32 noundef 1758)
  br label %114

114:                                              ; preds = %111, %108
  br label %115

115:                                              ; preds = %114
  br label %116

116:                                              ; preds = %115
  %117 = load i32, ptr %16, align 4, !tbaa !13
  store i32 %117, ptr %6, align 4
  store i32 1, ptr %18, align 4
  br label %123

118:                                              ; preds = %104
  br label %119

119:                                              ; preds = %118
  %120 = load i32, ptr %13, align 4, !tbaa !13
  %121 = add nsw i32 %120, 1
  store i32 %121, ptr %13, align 4, !tbaa !13
  br label %40, !llvm.loop !201

122:                                              ; preds = %40
  store i32 0, ptr %6, align 4
  store i32 1, ptr %18, align 4
  br label %123

123:                                              ; preds = %122, %116, %81
  call void @llvm.lifetime.end.p0(i64 4, ptr %16) #11
  call void @llvm.lifetime.end.p0(i64 4, ptr %15) #11
  call void @llvm.lifetime.end.p0(i64 4, ptr %14) #11
  call void @llvm.lifetime.end.p0(i64 4, ptr %13) #11
  call void @llvm.lifetime.end.p0(i64 8, ptr %12) #11
  %124 = load i32, ptr %6, align 4
  ret i32 %124
}