; Function Attrs: nounwind uwtable
define noundef i32 @pmix_bfrops_base_unpack_resunit(ptr noundef %0, ptr noundef %1, ptr noundef %2, ptr noundef readonly captures(none) %3, i16 noundef zeroext %4) local_unnamed_addr #0 {
  %6 = alloca i32, align 4
  call void @llvm.lifetime.start.p0(i64 4, ptr nonnull %6) #10
  %7 = load i32, ptr getelementptr inbounds nuw (i8, ptr @pmix_bfrops_base_framework, i64 76), align 4, !tbaa !7
  %or.cond = icmp ult i32 %7, 64
  br i1 %or.cond, label %8, label %15

8:                                                ; preds = %5
  %9 = zext nneg i32 %7 to i64
  %10 = getelementptr inbounds nuw [0 x %struct.pmix_output_desc_t], ptr @pmix_output_info, i64 0, i64 %9, i32 2
  %11 = load i32, ptr %10, align 4, !tbaa !19
  %12 = icmp sgt i32 %11, 19
  br i1 %12, label %13, label %15

13:                                               ; preds = %8
  %14 = load i32, ptr %3, align 4, !tbaa !3
  tail call void (i32, ptr, ...) @pmix_output(i32 noundef %7, ptr noundef nonnull @.str.37, i32 noundef %14) #10
  br label %15

15:                                               ; preds = %13, %8, %5
  %16 = load i32, ptr %3, align 4, !tbaa !3
  %17 = icmp sgt i32 %16, 0
  br i1 %17, label %.lr.ph, label %.loopexit

.lr.ph:                                           ; preds = %15
  %18 = getelementptr inbounds nuw i8, ptr %0, i64 128
  %19 = getelementptr inbounds nuw i8, ptr %0, i64 152
  %wide.trip.count = zext nneg i32 %16 to i64
  br label %20

20:                                               ; preds = %.lr.ph, %42
  %indvars.iv = phi i64 [ 0, %.lr.ph ], [ %indvars.iv.next, %42 ]
  %21 = getelementptr inbounds nuw %struct.pmix_resource_unit, ptr %2, i64 %indvars.iv
  call void @PMIx_Resource_unit_construct(ptr noundef %21) #10
  store i32 1, ptr %6, align 4, !tbaa !3
  %22 = load i32, ptr %18, align 8, !tbaa !26
  %.not.i = icmp sgt i32 %22, 57
  br i1 %.not.i, label %pmix_pointer_array_get_item.exit, label %.loopexit.sink.split, !prof !29

pmix_pointer_array_get_item.exit:                 ; preds = %20
  %23 = load ptr, ptr %19, align 8, !tbaa !30
  %24 = getelementptr inbounds nuw i8, ptr %23, i64 456
  %25 = load ptr, ptr %24, align 8, !tbaa !31
  %26 = icmp eq ptr %25, null
  br i1 %26, label %.loopexit.sink.split, label %27

27:                                               ; preds = %pmix_pointer_array_get_item.exit
  %28 = getelementptr inbounds nuw i8, ptr %25, i64 144
  %29 = load ptr, ptr %28, align 8, !tbaa !32
  %30 = call i32 %29(ptr noundef nonnull %0, ptr noundef %1, ptr noundef %21, ptr noundef nonnull %6, i16 noundef zeroext 57) #10
  switch i32 %30, label %.loopexit.sink.split [
    i32 0, label %31
    i32 -2, label %.loopexit
  ]

31:                                               ; preds = %27
  store i32 1, ptr %6, align 4, !tbaa !3
  %32 = load i32, ptr %18, align 8, !tbaa !26
  %.not.i39 = icmp sgt i32 %32, 4
  br i1 %.not.i39, label %pmix_pointer_array_get_item.exit41, label %.loopexit.sink.split, !prof !29

pmix_pointer_array_get_item.exit41:               ; preds = %31
  %33 = load ptr, ptr %19, align 8, !tbaa !30
  %34 = getelementptr inbounds nuw i8, ptr %33, i64 32
  %35 = load ptr, ptr %34, align 8, !tbaa !31
  %36 = icmp eq ptr %35, null
  br i1 %36, label %.loopexit.sink.split, label %37

37:                                               ; preds = %pmix_pointer_array_get_item.exit41
  %38 = getelementptr inbounds nuw i8, ptr %35, i64 144
  %39 = load ptr, ptr %38, align 8, !tbaa !32
  %40 = getelementptr inbounds nuw i8, ptr %21, i64 8
  %41 = call i32 %39(ptr noundef nonnull %0, ptr noundef %1, ptr noundef nonnull %40, ptr noundef nonnull %6, i16 noundef zeroext 4) #10
  switch i32 %41, label %.loopexit.sink.split [
    i32 0, label %42
    i32 -2, label %.loopexit
  ]

42:                                               ; preds = %37
  %indvars.iv.next = add nuw nsw i64 %indvars.iv, 1
  %exitcond.not = icmp eq i64 %indvars.iv.next, %wide.trip.count
  br i1 %exitcond.not, label %.loopexit, label %20, !llvm.loop !138

.loopexit.sink.split:                             ; preds = %37, %pmix_pointer_array_get_item.exit41, %31, %27, %pmix_pointer_array_get_item.exit, %20
  %.149.sink = phi i32 [ %30, %27 ], [ -16, %pmix_pointer_array_get_item.exit ], [ -16, %20 ], [ %41, %37 ], [ -16, %pmix_pointer_array_get_item.exit41 ], [ -16, %31 ]
  %.sink56 = phi i32 [ 1751, %27 ], [ 1751, %pmix_pointer_array_get_item.exit ], [ 1751, %20 ], [ 1758, %37 ], [ 1758, %pmix_pointer_array_get_item.exit41 ], [ 1758, %31 ]
  %43 = call ptr @PMIx_Error_string(i32 noundef %.149.sink) #10
  call void (i32, ptr, ...) @pmix_output(i32 noundef 0, ptr noundef nonnull @.str.6, ptr noundef %43, ptr noundef nonnull @.str.7, i32 noundef %.sink56) #10
  br label %.loopexit

.loopexit:                                        ; preds = %27, %37, %42, %.loopexit.sink.split, %15
  %.0 = phi i32 [ 0, %15 ], [ %.149.sink, %.loopexit.sink.split ], [ %30, %27 ], [ %41, %37 ], [ 0, %42 ]
  call void @llvm.lifetime.end.p0(i64 4, ptr nonnull %6) #10
  ret i32 %.0
}